; Function Attrs: mustprogress nounwind uwtable
define dso_local void @_ZN5clang10SemaAMDGPU33handleAMDGPUFlatWorkGroupSizeAttrEPNS_4DeclERKNS_10ParsedAttrE(ptr noundef nonnull align 8 dereferenceable(8) %0, ptr noundef %1, ptr noundef nonnull align 8 dereferenceable(72) %2) local_unnamed_addr #0 align 2 {
  %4 = getelementptr inbounds nuw i8, ptr %2, i64 72
  %.sroa.0.0.copyload.i.i = load i64, ptr %4, align 8
  %5 = and i64 %.sroa.0.0.copyload.i.i, -4
  %6 = inttoptr i64 %5 to ptr
  %7 = getelementptr inbounds nuw i8, ptr %2, i64 80
  %.sroa.0.0.copyload.i.i7 = load i64, ptr %7, align 8
  %8 = and i64 %.sroa.0.0.copyload.i.i7, -4
  %9 = inttoptr i64 %8 to ptr
  %10 = tail call noundef ptr @_ZN5clang10SemaAMDGPU33CreateAMDGPUFlatWorkGroupSizeAttrERKNS_19AttributeCommonInfoEPNS_4ExprES5_(ptr noundef nonnull align 8 dereferenceable(8) %0, ptr noundef nonnull align 8 dereferenceable(32) %2, ptr noundef %6, ptr noundef %9)
  %.not.i = icmp eq ptr %10, null
  br i1 %.not.i, label %_ZN5clang10SemaAMDGPU30addAMDGPUFlatWorkGroupSizeAttrEPNS_4DeclERKNS_19AttributeCommonInfoEPNS_4ExprES7_.exit, label %11

11:                                               ; preds = %3
  tail call void @_ZN5clang4Decl7addAttrEPNS_4AttrE(ptr noundef nonnull align 8 dereferenceable(33) %1, ptr noundef nonnull %10) #12
  br label %_ZN5clang10SemaAMDGPU30addAMDGPUFlatWorkGroupSizeAttrEPNS_4DeclERKNS_19AttributeCommonInfoEPNS_4ExprES7_.exit

_ZN5clang10SemaAMDGPU30addAMDGPUFlatWorkGroupSizeAttrEPNS_4DeclERKNS_19AttributeCommonInfoEPNS_4ExprES7_.exit: ; preds = %3, %11
  ret void
}